; Function Attrs: mustprogress nofree norecurse nosync nounwind willreturn memory(none) uwtable
define hidden { i64, i64 } @_ZN10duckdb_re28Compiler7NoMatchEv(ptr noundef nonnull readnone align 8 captures(none) dereferenceable(228) %0) local_unnamed_addr #10 align 2 {
  %2 = alloca %"struct.duckdb_re2::Frag", align 8
  store i32 0, ptr %2, align 8, !tbaa !71
  %.4..4..4..sroa_idx = getelementptr inbounds nuw i8, ptr %2, i64 4
  store i64 0, ptr %.4..4..4..sroa_idx, align 4
  %.12..12..12..sroa_idx = getelementptr inbounds nuw i8, ptr %2, i64 12
  store i8 0, ptr %.12..12..12..sroa_idx, align 4, !tbaa !72
  %.0..0..0..fca.0.load = load i64, ptr %2, align 8
  %.fca.0.insert = insertvalue { i64, i64 } poison, i64 %.0..0..0..fca.0.load, 0
  %.8..8..8..fca.1.gep.sroa_idx = getelementptr inbounds nuw i8, ptr %2, i64 8
  %.8..8..8..fca.1.load = load i64, ptr %.8..8..8..fca.1.gep.sroa_idx, align 8
  %.fca.1.insert = insertvalue { i64, i64 } %.fca.0.insert, i64 %.8..8..8..fca.1.load, 1
  ret { i64, i64 } %.fca.1.insert
}